; Function Attrs: mustprogress uwtable
define noundef signext range(i8 0, 2) i8 @_ZNK6icu_776Region8containsERKS0_(ptr noundef nonnull readonly align 8 captures(none) dereferenceable(112) %0, ptr noundef nonnull align 8 dereferenceable(112) %1) local_unnamed_addr #1 align 2 {
  %3 = alloca i32, align 4
  call void @llvm.lifetime.start.p0(i64 4, ptr nonnull %3) #19
  store i32 0, ptr %3, align 4, !tbaa !13
  %4 = load atomic i32, ptr @_ZN6icu_77L19gRegionDataInitOnceE acquire, align 4
  %.not11.i = icmp eq i32 %4, 2
  br i1 %.not11.i, label %9, label %5

5:                                                ; preds = %2
  %6 = tail call noundef signext i8 @_ZN6icu_7720umtx_initImplPreInitERNS_9UInitOnceE(ptr noundef nonnull align 4 dereferenceable(8) @_ZN6icu_77L19gRegionDataInitOnceE)
  %.not12.i = icmp eq i8 %6, 0
  br i1 %.not12.i, label %9, label %7

7:                                                ; preds = %5
  call void @_ZN6icu_776Region14loadRegionDataER10UErrorCode(ptr noundef nonnull align 4 dereferenceable(4) %3)
  %8 = load i32, ptr %3, align 4, !tbaa !13
  store i32 %8, ptr getelementptr inbounds nuw (i8, ptr @_ZN6icu_77L19gRegionDataInitOnceE, i64 4), align 4, !tbaa !98
  call void @_ZN6icu_7721umtx_initImplPostInitERNS_9UInitOnceE(ptr noundef nonnull align 4 dereferenceable(8) @_ZN6icu_77L19gRegionDataInitOnceE)
  br label %_ZN6icu_7713umtx_initOnceERNS_9UInitOnceEPFvR10UErrorCodeES3_.exit

9:                                                ; preds = %5, %2
  %10 = load i32, ptr getelementptr inbounds nuw (i8, ptr @_ZN6icu_77L19gRegionDataInitOnceE, i64 4), align 4, !tbaa !98
  %11 = icmp slt i32 %10, 1
  br i1 %11, label %_ZN6icu_7713umtx_initOnceERNS_9UInitOnceEPFvR10UErrorCodeES3_.exit, label %12

12:                                               ; preds = %9
  store i32 %10, ptr %3, align 4, !tbaa !13
  br label %_ZN6icu_7713umtx_initOnceERNS_9UInitOnceEPFvR10UErrorCodeES3_.exit

_ZN6icu_7713umtx_initOnceERNS_9UInitOnceEPFvR10UErrorCodeES3_.exit: ; preds = %7, %9, %12
  %13 = getelementptr inbounds nuw i8, ptr %0, i64 96
  %14 = load ptr, ptr %13, align 8, !tbaa !70
  %.not = icmp eq ptr %14, null
  br i1 %.not, label %._crit_edge, label %15

15:                                               ; preds = %_ZN6icu_7713umtx_initOnceERNS_9UInitOnceEPFvR10UErrorCodeES3_.exit
  %16 = getelementptr inbounds nuw i8, ptr %1, i64 16
  %17 = call noundef i32 @_ZNK6icu_777UVector7indexOfEPvi(ptr noundef nonnull align 8 dereferenceable(40) %14, ptr noundef nonnull %16, i32 noundef 0)
  %18 = icmp slt i32 %17, 0
  br i1 %18, label %.preheader, label %._crit_edge

.preheader:                                       ; preds = %15
  %19 = load ptr, ptr %13, align 8, !tbaa !70
  %20 = getelementptr inbounds nuw i8, ptr %19, i64 8
  %21 = load i32, ptr %20, align 8, !tbaa !55
  %.not2021 = icmp sgt i32 %21, 0
  br i1 %.not2021, label %.lr.ph, label %._crit_edge

.lr.ph:                                           ; preds = %.preheader, %.critedge
  %22 = phi ptr [ %29, %.critedge ], [ %19, %.preheader ]
  %.01422 = phi i32 [ %28, %.critedge ], [ 0, %.preheader ]
  %23 = call noundef ptr @_ZNK6icu_777UVector9elementAtEi(ptr noundef nonnull align 8 dereferenceable(40) %22, i32 noundef %.01422)
  %24 = load ptr, ptr @_ZN6icu_77L11regionIDMapE, align 8, !tbaa !96
  %25 = call ptr @uhash_get_77(ptr noundef %24, ptr noundef %23)
  %.not18 = icmp eq ptr %25, null
  br i1 %.not18, label %.critedge, label %26

26:                                               ; preds = %.lr.ph
  %27 = call noundef signext i8 @_ZNK6icu_776Region8containsERKS0_(ptr noundef nonnull align 8 dereferenceable(112) %25, ptr noundef nonnull align 8 dereferenceable(112) %1)
  %.not19 = icmp eq i8 %27, 0
  br i1 %.not19, label %.critedge, label %._crit_edge

.critedge:                                        ; preds = %26, %.lr.ph
  %28 = add nuw nsw i32 %.01422, 1
  %29 = load ptr, ptr %13, align 8, !tbaa !70
  %30 = getelementptr inbounds nuw i8, ptr %29, i64 8
  %31 = load i32, ptr %30, align 8, !tbaa !55
  %.not20 = icmp slt i32 %28, %31
  br i1 %.not20, label %.lr.ph, label %._crit_edge, !llvm.loop !104

._crit_edge:                                      ; preds = %26, %.critedge, %.preheader, %15, %_ZN6icu_7713umtx_initOnceERNS_9UInitOnceEPFvR10UErrorCodeES3_.exit
  %.0 = phi i8 [ 0, %_ZN6icu_7713umtx_initOnceERNS_9UInitOnceEPFvR10UErrorCodeES3_.exit ], [ 1, %15 ], [ 0, %.preheader ], [ 1, %26 ], [ 0, %.critedge ]
  call void @llvm.lifetime.end.p0(i64 4, ptr nonnull %3) #19
  ret i8 %.0
}